; ModuleID = '40/2923.c'
source_filename = "40/2923.c"
target datalayout = "e-m:e-p270:32:32-p271:32:32-p272:64:64-i64:64-f80:128-n8:16:32:64-S128"
target triple = "x86_64-pc-linux-gnu"

@.str = private unnamed_addr constant [16 x i8] c"%lf%lf%lf%lf%lf\00", align 1
@.str.1 = private unnamed_addr constant [15 x i8] c"Invalid input\0A\00", align 1
@.str.2 = private unnamed_addr constant [6 x i8] c"%.4f\0A\00", align 1

; Function Attrs: noinline nounwind uwtable
define dso_local double @S(double %0, double %1, double %2, double %3, double %4) #0 {
  %6 = alloca double, align 8
  %7 = alloca double, align 8
  %8 = alloca double, align 8
  %9 = alloca double, align 8
  %10 = alloca double, align 8
  %11 = alloca double, align 8
  %12 = alloca double, align 8
  %13 = alloca double, align 8
  store double %0, double* %7, align 8
  store double %1, double* %8, align 8
  store double %2, double* %9, align 8
  store double %3, double* %10, align 8
  store double %4, double* %11, align 8
  %14 = load double, double* %7, align 8
  %15 = load double, double* %8, align 8
  %16 = fadd double %14, %15
  %17 = load double, double* %9, align 8
  %18 = fadd double %16, %17
  %19 = load double, double* %10, align 8
  %20 = fadd double %18, %19
  %21 = fdiv double %20, 2.000000e+00
  store double %21, double* %12, align 8
  %22 = load double, double* %12, align 8
  %23 = load double, double* %7, align 8
  %24 = fsub double %22, %23
  %25 = load double, double* %12, align 8
  %26 = load double, double* %8, align 8
  %27 = fsub double %25, %26
  %28 = fmul double %24, %27
  %29 = load double, double* %12, align 8
  %30 = load double, double* %9, align 8
  %31 = fsub double %29, %30
  %32 = fmul double %28, %31
  %33 = load double, double* %12, align 8
  %34 = load double, double* %10, align 8
  %35 = fsub double %33, %34
  %36 = fmul double %32, %35
  %37 = load double, double* %7, align 8
  %38 = load double, double* %8, align 8
  %39 = fmul double %37, %38
  %40 = load double, double* %9, align 8
  %41 = fmul double %39, %40
  %42 = load double, double* %10, align 8
  %43 = fmul double %41, %42
  %44 = load double, double* %11, align 8
  %45 = call double @cos(double %44) #3
  %46 = call double @pow(double %45, double 2.000000e+00) #3
  %47 = fmul double %43, %46
  %48 = fsub double %36, %47
  store double %48, double* %13, align 8
  %49 = load double, double* %13, align 8
  %50 = fcmp olt double %49, 0.000000e+00
  br i1 %50, label %51, label %52

51:                                               ; preds = %5
  store double -1.000000e+00, double* %6, align 8
  br label %55

52:                                               ; preds = %5
  %53 = load double, double* %13, align 8
  %54 = call double @sqrt(double %53) #3
  store double %54, double* %6, align 8
  br label %55

55:                                               ; preds = %52, %51
  %56 = load double, double* %6, align 8
  ret double %56
}

; Function Attrs: nounwind
declare dso_local double @pow(double, double) #1

; Function Attrs: nounwind
declare dso_local double @cos(double) #1

; Function Attrs: nounwind
declare dso_local double @sqrt(double) #1

; Function Attrs: noinline nounwind uwtable
define dso_local i32 @main() #0 {
  %1 = alloca i32, align 4
  %2 = alloca double, align 8
  %3 = alloca double, align 8
  %4 = alloca double, align 8
  %5 = alloca double, align 8
  %6 = alloca double, align 8
  %7 = alloca double, align 8
  store i32 0, i32* %1, align 4
  %8 = call i32 (i8*, ...) @__isoc99_scanf(i8* getelementptr inbounds ([16 x i8], [16 x i8]* @.str, i64 0, i64 0), double* %2, double* %3, double* %4, double* %5, double* %7)
  %9 = load double, double* %7, align 8
  %10 = fdiv double %9, 2.000000e+00
  %11 = fmul double %10, 1.000000e+02
  %12 = fdiv double %11, 1.800000e+02
  store double %12, double* %6, align 8
  %13 = load double, double* %2, align 8
  %14 = load double, double* %3, align 8
  %15 = load double, double* %4, align 8
  %16 = load double, double* %5, align 8
  %17 = load double, double* %6, align 8
  %18 = call double @S(double %13, double %14, double %15, double %16, double %17)
  %19 = fcmp oeq double %18, -1.000000e+00
  br i1 %19, label %20, label %22

20:                                               ; preds = %0
  %21 = call i32 (i8*, ...) @printf(i8* getelementptr inbounds ([15 x i8], [15 x i8]* @.str.1, i64 0, i64 0))
  br label %30

22:                                               ; preds = %0
  %23 = load double, double* %2, align 8
  %24 = load double, double* %3, align 8
  %25 = load double, double* %4, align 8
  %26 = load double, double* %5, align 8
  %27 = load double, double* %6, align 8
  %28 = call double @S(double %23, double %24, double %25, double %26, double %27)
  %29 = call i32 (i8*, ...) @printf(i8* getelementptr inbounds ([6 x i8], [6 x i8]* @.str.2, i64 0, i64 0), double %28)
  br label %30

30:                                               ; preds = %22, %20
  ret i32 0
}

declare dso_local i32 @__isoc99_scanf(i8*, ...) #2

declare dso_local i32 @printf(i8*, ...) #2


!llvm.module.flags = !{!0}
!llvm.ident = !{!1}

!0 = !{i32 1, !"wchar_size", i32 4}
!1 = !{!"clang version 10.0.0-4ubuntu1 "}
