; ModuleID = 'source-C-CXX/39/2923.c'
source_filename = "source-C-CXX/39/2923.c"
target datalayout = "e-m:e-p270:32:32-p271:32:32-p272:64:64-i64:64-f80:128-n8:16:32:64-S128"
target triple = "x86_64-pc-linux-gnu"

@.str = private unnamed_addr constant [16 x i8] c"%lf%lf%lf%lf%lf\00", align 1
@.str.2 = private unnamed_addr constant [6 x i8] c"%.4f\0A\00", align 1
@str = private unnamed_addr constant [14 x i8] c"Invalid input\00", align 1

; Function Attrs: mustprogress nofree nounwind sspstrong uwtable willreturn
define dso_local double @S(double %0, double %1, double %2, double %3, double %4) local_unnamed_addr #0 {
  %6 = fadd double %0, %1
  %7 = fadd double %6, %2
  %8 = fadd double %7, %3
  %9 = fmul double %8, 5.000000e-01
  %10 = fsub double %9, %0
  %11 = fsub double %9, %1
  %12 = fmul double %10, %11
  %13 = fsub double %9, %2
  %14 = fmul double %13, %12
  %15 = fsub double %9, %3
  %16 = fmul double %15, %14
  %17 = fmul double %0, %1
  %18 = fmul double %17, %2
  %19 = fmul double %18, %3
  %20 = tail call double @cos(double %4) #6
  %21 = fmul double %20, %20
  %22 = fmul double %19, %21
  %23 = fsub double %16, %22
  %24 = fcmp olt double %23, 0.000000e+00
  br i1 %24, label %27, label %25

25:                                               ; preds = %5
  %26 = tail call double @sqrt(double %23) #6
  br label %27

27:                                               ; preds = %5, %25
  %28 = phi double [ %26, %25 ], [ -1.000000e+00, %5 ]
  ret double %28
}

; Function Attrs: argmemonly mustprogress nofree nosync nounwind willreturn
declare void @llvm.lifetime.start.p0i8(i64 immarg, i8* nocapture) #1

; Function Attrs: mustprogress nofree nounwind willreturn
declare double @cos(double) local_unnamed_addr #2

; Function Attrs: mustprogress nofree nounwind willreturn
declare double @sqrt(double) local_unnamed_addr #2

; Function Attrs: argmemonly mustprogress nofree nosync nounwind willreturn
declare void @llvm.lifetime.end.p0i8(i64 immarg, i8* nocapture) #1

; Function Attrs: nofree nounwind sspstrong uwtable
define dso_local i32 @main() local_unnamed_addr #3 {
  %1 = alloca double, align 8
  %2 = alloca double, align 8
  %3 = alloca double, align 8
  %4 = alloca double, align 8
  %5 = alloca double, align 8
  %6 = bitcast double* %1 to i8*
  call void @llvm.lifetime.start.p0i8(i64 8, i8* nonnull %6) #6
  %7 = bitcast double* %2 to i8*
  call void @llvm.lifetime.start.p0i8(i64 8, i8* nonnull %7) #6
  %8 = bitcast double* %3 to i8*
  call void @llvm.lifetime.start.p0i8(i64 8, i8* nonnull %8) #6
  %9 = bitcast double* %4 to i8*
  call void @llvm.lifetime.start.p0i8(i64 8, i8* nonnull %9) #6
  %10 = bitcast double* %5 to i8*
  call void @llvm.lifetime.start.p0i8(i64 8, i8* nonnull %10) #6
  %11 = call i32 (i8*, ...) @__isoc99_scanf(i8* getelementptr inbounds ([16 x i8], [16 x i8]* @.str, i64 0, i64 0), double* nonnull %1, double* nonnull %2, double* nonnull %3, double* nonnull %4, double* nonnull %5)
  %12 = load double, double* %5, align 8, !tbaa !5
  %13 = fmul double %12, 5.000000e-01
  %14 = fmul double %13, 1.000000e+02
  %15 = fdiv double %14, 1.800000e+02
  %16 = load double, double* %1, align 8, !tbaa !5
  %17 = load double, double* %2, align 8, !tbaa !5
  %18 = load double, double* %3, align 8, !tbaa !5
  %19 = load double, double* %4, align 8, !tbaa !5
  %20 = fadd double %16, %17
  %21 = fadd double %20, %18
  %22 = fadd double %21, %19
  %23 = fmul double %22, 5.000000e-01
  %24 = fsub double %23, %16
  %25 = fsub double %23, %17
  %26 = fmul double %24, %25
  %27 = fsub double %23, %18
  %28 = fmul double %27, %26
  %29 = fsub double %23, %19
  %30 = fmul double %29, %28
  %31 = fmul double %16, %17
  %32 = fmul double %31, %18
  %33 = fmul double %32, %19
  %34 = call double @cos(double %15) #6
  %35 = fmul double %34, %34
  %36 = fmul double %33, %35
  %37 = fsub double %30, %36
  %38 = fcmp olt double %37, 0.000000e+00
  br i1 %38, label %42, label %39

39:                                               ; preds = %0
  %40 = call double @sqrt(double %37) #6
  %41 = fcmp oeq double %40, -1.000000e+00
  br i1 %41, label %42, label %44

42:                                               ; preds = %0, %39
  %43 = call i32 @puts(i8* nonnull dereferenceable(1) getelementptr inbounds ([14 x i8], [14 x i8]* @str, i64 0, i64 0))
  br label %73

44:                                               ; preds = %39
  %45 = load double, double* %1, align 8, !tbaa !5
  %46 = load double, double* %2, align 8, !tbaa !5
  %47 = load double, double* %3, align 8, !tbaa !5
  %48 = load double, double* %4, align 8, !tbaa !5
  %49 = fadd double %45, %46
  %50 = fadd double %49, %47
  %51 = fadd double %50, %48
  %52 = fmul double %51, 5.000000e-01
  %53 = fsub double %52, %45
  %54 = fsub double %52, %46
  %55 = fmul double %53, %54
  %56 = fsub double %52, %47
  %57 = fmul double %56, %55
  %58 = fsub double %52, %48
  %59 = fmul double %58, %57
  %60 = fmul double %45, %46
  %61 = fmul double %60, %47
  %62 = fmul double %61, %48
  %63 = call double @cos(double %15) #6
  %64 = fmul double %63, %63
  %65 = fmul double %62, %64
  %66 = fsub double %59, %65
  %67 = fcmp olt double %66, 0.000000e+00
  br i1 %67, label %70, label %68

68:                                               ; preds = %44
  %69 = call double @sqrt(double %66) #6
  br label %70

70:                                               ; preds = %44, %68
  %71 = phi double [ %69, %68 ], [ -1.000000e+00, %44 ]
  %72 = call i32 (i8*, ...) @printf(i8* nonnull dereferenceable(1) getelementptr inbounds ([6 x i8], [6 x i8]* @.str.2, i64 0, i64 0), double %71)
  br label %73

73:                                               ; preds = %70, %42
  call void @llvm.lifetime.end.p0i8(i64 8, i8* nonnull %10) #6
  call void @llvm.lifetime.end.p0i8(i64 8, i8* nonnull %9) #6
  call void @llvm.lifetime.end.p0i8(i64 8, i8* nonnull %8) #6
  call void @llvm.lifetime.end.p0i8(i64 8, i8* nonnull %7) #6
  call void @llvm.lifetime.end.p0i8(i64 8, i8* nonnull %6) #6
  ret i32 0
}

; Function Attrs: nofree nounwind
declare noundef i32 @__isoc99_scanf(i8* nocapture noundef readonly, ...) local_unnamed_addr #4

; Function Attrs: nofree nounwind
declare noundef i32 @printf(i8* nocapture noundef readonly, ...) local_unnamed_addr #4

; Function Attrs: nofree nounwind
declare noundef i32 @puts(i8* nocapture noundef readonly) local_unnamed_addr #5


!llvm.module.flags = !{!0, !1, !2, !3}
!llvm.ident = !{!4}

!0 = !{i32 1, !"wchar_size", i32 4}
!1 = !{i32 7, !"PIC Level", i32 2}
!2 = !{i32 7, !"PIE Level", i32 2}
!3 = !{i32 7, !"uwtable", i32 1}
!4 = !{!"clang version 13.0.0"}
!5 = !{!6, !6, i64 0}
!6 = !{!"double", !7, i64 0}
!7 = !{!"omnipotent char", !8, i64 0}
!8 = !{!"Simple C/C++ TBAA"}
